target datalayout = "e-m:e-p270:32:32-p271:32:32-p272:64:64-i64:64-i128:128-f80:128-n8:16:32:64-S128"
target triple = "x86_64-pc-linux-gnu"

%"struct.duckdb::roaring::ContainerScanState" = type { ptr, i64, i64, i64 }

; Function Attrs: mustprogress uwtable
define void @_ZN6duckdb7roaring16RoaringScanState12ScanInternalERNS0_18ContainerScanStateEmRNS_6VectorEm(ptr noundef nonnull align 8 dereferenceable(200) %0, ptr noundef nonnull align 8 dereferenceable(32) %1, i64 noundef %2, ptr noundef nonnull align 8 dereferenceable(104) %3, i64 noundef %4) #0 align 2 {
  %6 = alloca ptr, align 8
  %7 = alloca ptr, align 8
  %8 = alloca i64, align 8
  %9 = alloca ptr, align 8
  %10 = alloca i64, align 8
  store ptr %0, ptr %6, align 8, !tbaa !164
  store ptr %1, ptr %7, align 8, !tbaa !204
  store i64 %2, ptr %8, align 8, !tbaa !8
  store ptr %3, ptr %9, align 8, !tbaa !101
  store i64 %4, ptr %10, align 8, !tbaa !8
  %11 = load ptr, ptr %7, align 8, !tbaa !204
  %12 = load ptr, ptr %9, align 8, !tbaa !101
  %13 = load i64, ptr %10, align 8, !tbaa !8
  %14 = load i64, ptr %8, align 8, !tbaa !8
  %15 = load ptr, ptr %11, align 8, !tbaa !242
  %16 = getelementptr inbounds ptr, ptr %15, i64 2
  %17 = load ptr, ptr %16, align 8
  call void %17(ptr noundef nonnull align 8 dereferenceable(32) %11, ptr noundef nonnull align 8 dereferenceable(104) %12, i64 noundef %13, i64 noundef %14)
  ret void
}

; Function Attrs: mustprogress nounwind uwtable
define linkonce_odr noundef i64 @_ZN6duckdb8MinValueImEET_S1_S1_(i64 noundef %0, i64 noundef %1) #2 comdat {
  %3 = alloca i64, align 8
  %4 = alloca i64, align 8
  store i64 %0, ptr %3, align 8, !tbaa !8
  store i64 %1, ptr %4, align 8, !tbaa !8
  %5 = load i64, ptr %3, align 8, !tbaa !8
  %6 = load i64, ptr %4, align 8, !tbaa !8
  %7 = icmp ult i64 %5, %6
  br i1 %7, label %8, label %10

8:                                                ; preds = %2
  %9 = load i64, ptr %3, align 8, !tbaa !8
  br label %12

10:                                               ; preds = %2
  %11 = load i64, ptr %4, align 8, !tbaa !8
  br label %12

12:                                               ; preds = %10, %8
  %13 = phi i64 [ %9, %8 ], [ %11, %10 ]
  ret i64 %13
}

; Function Attrs: mustprogress nounwind uwtable
define noundef i64 @_ZN6duckdb7roaring16RoaringScanState17GetContainerIndexEmRm(ptr noundef nonnull align 8 dereferenceable(200) %0, i64 noundef %1, ptr noundef nonnull align 8 dereferenceable(8) %2) #2 align 2 {
  %4 = alloca ptr, align 8
  %5 = alloca i64, align 8
  %6 = alloca ptr, align 8
  %7 = alloca i64, align 8
  store ptr %0, ptr %4, align 8, !tbaa !164
  store i64 %1, ptr %5, align 8, !tbaa !8
  store ptr %2, ptr %6, align 8, !tbaa !10
  call void @llvm.lifetime.start.p0(i64 8, ptr %7) #19
  %8 = load i64, ptr %5, align 8, !tbaa !8
  %9 = udiv i64 %8, 2048
  store i64 %9, ptr %7, align 8, !tbaa !8
  %10 = load i64, ptr %5, align 8, !tbaa !8
  %11 = urem i64 %10, 2048
  %12 = load ptr, ptr %6, align 8, !tbaa !10
  store i64 %11, ptr %12, align 8, !tbaa !8
  %13 = load i64, ptr %7, align 8, !tbaa !8
  call void @llvm.lifetime.end.p0(i64 8, ptr %7) #19
  ret i64 %13
}

; Function Attrs: mustprogress uwtable
define void @_ZN6duckdb7roaring16RoaringScanState11ScanPartialEmRNS_6VectorEmm(ptr noundef nonnull align 8 dereferenceable(200) %0, i64 noundef %1, ptr noundef nonnull align 8 dereferenceable(104) %2, i64 noundef %3, i64 noundef %4) #0 align 2 {
  %6 = alloca ptr, align 8
  %7 = alloca i64, align 8
  %8 = alloca ptr, align 8
  %9 = alloca i64, align 8
  %10 = alloca i64, align 8
  %11 = alloca i64, align 8
  %12 = alloca i64, align 8
  %13 = alloca i64, align 8
  %14 = alloca i64, align 8
  %15 = alloca ptr, align 8
  %16 = alloca i64, align 8
  %17 = alloca i64, align 8
  store ptr %0, ptr %6, align 8, !tbaa !164
  store i64 %1, ptr %7, align 8, !tbaa !8
  store ptr %2, ptr %8, align 8, !tbaa !101
  store i64 %3, ptr %9, align 8, !tbaa !8
  store i64 %4, ptr %10, align 8, !tbaa !8
  %18 = load ptr, ptr %6, align 8
  %19 = load ptr, ptr %8, align 8, !tbaa !101
  %20 = load i64, ptr %10, align 8, !tbaa !8
  call void @_ZN6duckdb6Vector7FlattenEm(ptr noundef nonnull align 8 dereferenceable(104) %19, i64 noundef %20)
  call void @llvm.lifetime.start.p0(i64 8, ptr %11) #19
  %21 = load i64, ptr %10, align 8, !tbaa !8
  store i64 %21, ptr %11, align 8, !tbaa !8
  call void @llvm.lifetime.start.p0(i64 8, ptr %12) #19
  store i64 0, ptr %12, align 8, !tbaa !8
  br label %22

22:                                               ; preds = %25, %5
  %23 = load i64, ptr %11, align 8, !tbaa !8
  %24 = icmp ne i64 %23, 0
  br i1 %24, label %25, label %55

25:                                               ; preds = %22
  call void @llvm.lifetime.start.p0(i64 8, ptr %13) #19
  call void @llvm.lifetime.start.p0(i64 8, ptr %14) #19
  %26 = load i64, ptr %7, align 8, !tbaa !8
  %27 = load i64, ptr %12, align 8, !tbaa !8
  %28 = add i64 %26, %27
  %29 = call noundef i64 @_ZN6duckdb7roaring16RoaringScanState17GetContainerIndexEmRm(ptr noundef nonnull align 8 dereferenceable(200) %18, i64 noundef %28, ptr noundef nonnull align 8 dereferenceable(8) %13)
  store i64 %29, ptr %14, align 8, !tbaa !8
  call void @llvm.lifetime.start.p0(i64 8, ptr %15) #19
  %30 = load i64, ptr %14, align 8, !tbaa !8
  %31 = load i64, ptr %13, align 8, !tbaa !8
  %32 = call noundef nonnull align 8 dereferenceable(32) ptr @_ZN6duckdb7roaring16RoaringScanState13LoadContainerEmm(ptr noundef nonnull align 8 dereferenceable(200) %18, i64 noundef %30, i64 noundef %31)
  store ptr %32, ptr %15, align 8, !tbaa !204
  call void @llvm.lifetime.start.p0(i64 8, ptr %16) #19
  %33 = load ptr, ptr %15, align 8, !tbaa !204
  %34 = getelementptr inbounds nuw %"struct.duckdb::roaring::ContainerScanState", ptr %33, i32 0, i32 2
  %35 = load i64, ptr %34, align 8, !tbaa !206
  %36 = load ptr, ptr %15, align 8, !tbaa !204
  %37 = getelementptr inbounds nuw %"struct.duckdb::roaring::ContainerScanState", ptr %36, i32 0, i32 3
  %38 = load i64, ptr %37, align 8, !tbaa !208
  %39 = sub i64 %35, %38
  store i64 %39, ptr %16, align 8, !tbaa !8
  call void @llvm.lifetime.start.p0(i64 8, ptr %17) #19
  %40 = load i64, ptr %11, align 8, !tbaa !8
  %41 = load i64, ptr %16, align 8, !tbaa !8
  %42 = call noundef i64 @_ZN6duckdb8MinValueImEET_S1_S1_(i64 noundef %40, i64 noundef %41)
  store i64 %42, ptr %17, align 8, !tbaa !8
  %43 = load ptr, ptr %15, align 8, !tbaa !204
  %44 = load i64, ptr %17, align 8, !tbaa !8
  %45 = load ptr, ptr %8, align 8, !tbaa !101
  %46 = load i64, ptr %9, align 8, !tbaa !8
  %47 = load i64, ptr %12, align 8, !tbaa !8
  %48 = add i64 %46, %47
  call void @_ZN6duckdb7roaring16RoaringScanState12ScanInternalERNS0_18ContainerScanStateEmRNS_6VectorEm(ptr noundef nonnull align 8 dereferenceable(200) %18, ptr noundef nonnull align 8 dereferenceable(32) %43, i64 noundef %44, ptr noundef nonnull align 8 dereferenceable(104) %45, i64 noundef %48)
  %49 = load i64, ptr %17, align 8, !tbaa !8
  %50 = load i64, ptr %11, align 8, !tbaa !8
  %51 = sub i64 %50, %49
  store i64 %51, ptr %11, align 8, !tbaa !8
  %52 = load i64, ptr %17, align 8, !tbaa !8
  %53 = load i64, ptr %12, align 8, !tbaa !8
  %54 = add i64 %53, %52
  store i64 %54, ptr %12, align 8, !tbaa !8
  call void @llvm.lifetime.end.p0(i64 8, ptr %17) #19
  call void @llvm.lifetime.end.p0(i64 8, ptr %16) #19
  call void @llvm.lifetime.end.p0(i64 8, ptr %15) #19
  call void @llvm.lifetime.end.p0(i64 8, ptr %14) #19
  call void @llvm.lifetime.end.p0(i64 8, ptr %13) #19
  br label %22, !llvm.loop !209

55:                                               ; preds = %22
  call void @llvm.lifetime.end.p0(i64 8, ptr %12) #19
  call void @llvm.lifetime.end.p0(i64 8, ptr %11) #19
  ret void
}