; Function Attrs: mustprogress uwtable
define void @_ZN6duckdb7roaring16RoaringScanState11ScanPartialEmRNS_6VectorEmm(ptr noundef nonnull align 8 dereferenceable(200) %0, i64 noundef %1, ptr noundef nonnull align 8 dereferenceable(104) %2, i64 noundef %3, i64 noundef %4) local_unnamed_addr #0 align 2 {
  tail call void @_ZN6duckdb6Vector7FlattenEm(ptr noundef nonnull align 8 dereferenceable(104) %2, i64 noundef %4)
  %.not21 = icmp eq i64 %4, 0
  br i1 %.not21, label %._crit_edge, label %.lr.ph

.lr.ph:                                           ; preds = %5, %.lr.ph
  %.023 = phi i64 [ %20, %.lr.ph ], [ %4, %5 ]
  %.02022 = phi i64 [ %21, %.lr.ph ], [ 0, %5 ]
  %6 = add i64 %.02022, %1
  %7 = lshr i64 %6, 11
  %8 = and i64 %6, 2047
  %9 = tail call noundef nonnull align 8 dereferenceable(32) ptr @_ZN6duckdb7roaring16RoaringScanState13LoadContainerEmm(ptr noundef nonnull align 8 dereferenceable(200) %0, i64 noundef %7, i64 noundef %8)
  %10 = getelementptr inbounds nuw i8, ptr %9, i64 16
  %11 = load i64, ptr %10, align 8, !tbaa !184
  %12 = getelementptr inbounds nuw i8, ptr %9, i64 24
  %13 = load i64, ptr %12, align 8, !tbaa !186
  %14 = sub i64 %11, %13
  %15 = tail call noundef i64 @llvm.umin.i64(i64 %.023, i64 %14)
  %16 = add i64 %.02022, %3
  %17 = load ptr, ptr %9, align 8, !tbaa !136
  %18 = getelementptr inbounds nuw i8, ptr %17, i64 16
  %19 = load ptr, ptr %18, align 8
  tail call void %19(ptr noundef nonnull align 8 dereferenceable(32) %9, ptr noundef nonnull align 8 dereferenceable(104) %2, i64 noundef %16, i64 noundef %15)
  %20 = sub i64 %.023, %15
  %21 = add i64 %15, %.02022
  %.not = icmp eq i64 %20, 0
  br i1 %.not, label %._crit_edge, label %.lr.ph, !llvm.loop !187

._crit_edge:                                      ; preds = %.lr.ph, %5
  ret void
}